target datalayout = "e-m:e-p270:32:32-p271:32:32-p272:64:64-i64:64-i128:128-f80:128-n8:16:32:64-S128"
target triple = "x86_64-pc-linux-gnu"

@.str.1619 = private unnamed_addr constant [11 x i8] c"Spare (%u)\00", align 1
@.str.1622 = private unnamed_addr constant [24 x i8] c"CPICH Ec/N0 < -24dB (0)\00", align 1
@.str.1623 = private unnamed_addr constant [24 x i8] c"CPICH Ec/N0 >= 0dB (49)\00", align 1
@.str.1624 = private unnamed_addr constant [36 x i8] c"%.1fdB <= CPICH Ec/N0 < %.1fdB (%u)\00", align 1

; Function Attrs: null_pointer_is_valid sspstrong uwtable
define internal void @ulp_CPICH_Ec_N0_fmt(ptr noundef %0, i32 noundef %1) #0 {
  %3 = alloca ptr, align 8
  %4 = alloca i32, align 4
  store ptr %0, ptr %3, align 8
  store i32 %1, ptr %4, align 4
  %5 = load i32, ptr %4, align 4
  %6 = icmp eq i32 %5, 0
  br i1 %6, label %7, label %12

7:                                                ; preds = %2
  %8 = load ptr, ptr %3, align 8
  %9 = load ptr, ptr %3, align 8
  %10 = call i64 @llvm.objectsize.i64.p0(ptr %9, i1 false, i1 true, i1 true)
  %11 = call i32 (ptr, i64, i32, i64, ptr, ...) @__snprintf_chk(ptr noundef %8, i64 noundef 240, i32 noundef 2, i64 noundef %10, ptr noundef @.str.1622)
  br label %47

12:                                               ; preds = %2
  %13 = load i32, ptr %4, align 4
  %14 = icmp eq i32 %13, 49
  br i1 %14, label %15, label %20

15:                                               ; preds = %12
  %16 = load ptr, ptr %3, align 8
  %17 = load ptr, ptr %3, align 8
  %18 = call i64 @llvm.objectsize.i64.p0(ptr %17, i1 false, i1 true, i1 true)
  %19 = call i32 (ptr, i64, i32, i64, ptr, ...) @__snprintf_chk(ptr noundef %16, i64 noundef 240, i32 noundef 2, i64 noundef %18, ptr noundef @.str.1623)
  br label %46

20:                                               ; preds = %12
  %21 = load i32, ptr %4, align 4
  %22 = icmp ugt i32 %21, 49
  br i1 %22, label %23, label %29

23:                                               ; preds = %20
  %24 = load ptr, ptr %3, align 8
  %25 = load ptr, ptr %3, align 8
  %26 = call i64 @llvm.objectsize.i64.p0(ptr %25, i1 false, i1 true, i1 true)
  %27 = load i32, ptr %4, align 4
  %28 = call i32 (ptr, i64, i32, i64, ptr, ...) @__snprintf_chk(ptr noundef %24, i64 noundef 240, i32 noundef 2, i64 noundef %26, ptr noundef @.str.1619, i32 noundef %27)
  br label %45

29:                                               ; preds = %20
  %30 = load ptr, ptr %3, align 8
  %31 = load ptr, ptr %3, align 8
  %32 = call i64 @llvm.objectsize.i64.p0(ptr %31, i1 false, i1 true, i1 true)
  %33 = load i32, ptr %4, align 4
  %34 = uitofp i32 %33 to float
  %35 = fdiv float %34, 2.000000e+00
  %36 = fpext float %35 to double
  %37 = fadd double -2.450000e+01, %36
  %38 = load i32, ptr %4, align 4
  %39 = uitofp i32 %38 to float
  %40 = fdiv float %39, 2.000000e+00
  %41 = fadd float -2.400000e+01, %40
  %42 = fpext float %41 to double
  %43 = load i32, ptr %4, align 4
  %44 = call i32 (ptr, i64, i32, i64, ptr, ...) @__snprintf_chk(ptr noundef %30, i64 noundef 240, i32 noundef 2, i64 noundef %32, ptr noundef @.str.1624, double noundef %37, double noundef %42, i32 noundef %43)
  br label %45

45:                                               ; preds = %29, %23
  br label %46

46:                                               ; preds = %45, %15
  br label %47

47:                                               ; preds = %46, %7
  ret void
}