; Function Attrs: nofree null_pointer_is_valid sspstrong uwtable
define internal void @ulp_CPICH_Ec_N0_fmt(ptr noundef %0, i32 noundef %1) #1 {
  switch i32 %1, label %7 [
    i32 0, label %3
    i32 49, label %5
  ]

3:                                                ; preds = %2
  %4 = tail call i32 (ptr, i64, i32, i64, ptr, ...) @__snprintf_chk(ptr noundef %0, i64 noundef 240, i32 noundef 2, i64 noundef -1, ptr noundef nonnull @.str.1622)
  br label %19

5:                                                ; preds = %2
  %6 = tail call i32 (ptr, i64, i32, i64, ptr, ...) @__snprintf_chk(ptr noundef %0, i64 noundef 240, i32 noundef 2, i64 noundef -1, ptr noundef nonnull @.str.1623)
  br label %19

7:                                                ; preds = %2
  %8 = icmp ugt i32 %1, 49
  br i1 %8, label %9, label %11

9:                                                ; preds = %7
  %10 = tail call i32 (ptr, i64, i32, i64, ptr, ...) @__snprintf_chk(ptr noundef %0, i64 noundef 240, i32 noundef 2, i64 noundef -1, ptr noundef nonnull @.str.1619, i32 noundef %1)
  br label %19

11:                                               ; preds = %7
  %12 = uitofp nneg i32 %1 to float
  %13 = fmul float %12, 5.000000e-01
  %14 = fpext float %13 to double
  %15 = fadd double %14, -2.450000e+01
  %16 = fadd float %13, -2.400000e+01
  %17 = fpext float %16 to double
  %18 = tail call i32 (ptr, i64, i32, i64, ptr, ...) @__snprintf_chk(ptr noundef %0, i64 noundef 240, i32 noundef 2, i64 noundef -1, ptr noundef nonnull @.str.1624, double noundef %15, double noundef %17, i32 noundef %1)
  br label %19

19:                                               ; preds = %5, %11, %9, %3
  ret void
}